target datalayout = "e-m:e-p270:32:32-p271:32:32-p272:64:64-i64:64-i128:128-f80:128-n8:16:32:64-S128"
target triple = "x86_64-pc-linux-gnu"

; Function Attrs: nounwind uwtable
define void @center_coordinate(ptr noundef %0, i32 noundef %1, i32 noundef %2) #0 {
  %4 = alloca ptr, align 8
  %5 = alloca i32, align 4
  %6 = alloca i32, align 4
  %7 = alloca i32, align 4
  %8 = alloca i32, align 4
  %9 = alloca double, align 8
  %10 = alloca double, align 8
  store ptr %0, ptr %4, align 8, !tbaa !13
  store i32 %1, ptr %5, align 4, !tbaa !7
  store i32 %2, ptr %6, align 4, !tbaa !7
  call void @llvm.lifetime.start.p0(i64 4, ptr %7) #8
  call void @llvm.lifetime.start.p0(i64 4, ptr %8) #8
  call void @llvm.lifetime.start.p0(i64 8, ptr %9) #8
  call void @llvm.lifetime.start.p0(i64 8, ptr %10) #8
  store i32 0, ptr %7, align 4, !tbaa !7
  br label %11

11:                                               ; preds = %62, %3
  %12 = load i32, ptr %7, align 4, !tbaa !7
  %13 = load i32, ptr %6, align 4, !tbaa !7
  %14 = icmp slt i32 %12, %13
  br i1 %14, label %15, label %65

15:                                               ; preds = %11
  store double 0.000000e+00, ptr %9, align 8, !tbaa !28
  store i32 0, ptr %8, align 4, !tbaa !7
  br label %16

16:                                               ; preds = %33, %15
  %17 = load i32, ptr %8, align 4, !tbaa !7
  %18 = load i32, ptr %5, align 4, !tbaa !7
  %19 = icmp slt i32 %17, %18
  br i1 %19, label %20, label %36

20:                                               ; preds = %16
  %21 = load ptr, ptr %4, align 8, !tbaa !13
  %22 = load i32, ptr %7, align 4, !tbaa !7
  %23 = sext i32 %22 to i64
  %24 = getelementptr inbounds ptr, ptr %21, i64 %23
  %25 = load ptr, ptr %24, align 8, !tbaa !11
  %26 = load i32, ptr %8, align 4, !tbaa !7
  %27 = sext i32 %26 to i64
  %28 = getelementptr inbounds i32, ptr %25, i64 %27
  %29 = load i32, ptr %28, align 4, !tbaa !7
  %30 = sitofp i32 %29 to double
  %31 = load double, ptr %9, align 8, !tbaa !28
  %32 = fadd double %31, %30
  store double %32, ptr %9, align 8, !tbaa !28
  br label %33

33:                                               ; preds = %20
  %34 = load i32, ptr %8, align 4, !tbaa !7
  %35 = add nsw i32 %34, 1
  store i32 %35, ptr %8, align 4, !tbaa !7
  br label %16, !llvm.loop !30

36:                                               ; preds = %16
  %37 = load double, ptr %9, align 8, !tbaa !28
  %38 = load i32, ptr %5, align 4, !tbaa !7
  %39 = sitofp i32 %38 to double
  %40 = fdiv double %37, %39
  store double %40, ptr %10, align 8, !tbaa !28
  store i32 0, ptr %8, align 4, !tbaa !7
  br label %41

41:                                               ; preds = %58, %36
  %42 = load i32, ptr %8, align 4, !tbaa !7
  %43 = load i32, ptr %5, align 4, !tbaa !7
  %44 = icmp slt i32 %42, %43
  br i1 %44, label %45, label %61

45:                                               ; preds = %41
  %46 = load double, ptr %10, align 8, !tbaa !28
  %47 = fptosi double %46 to i32
  %48 = load ptr, ptr %4, align 8, !tbaa !13
  %49 = load i32, ptr %7, align 4, !tbaa !7
  %50 = sext i32 %49 to i64
  %51 = getelementptr inbounds ptr, ptr %48, i64 %50
  %52 = load ptr, ptr %51, align 8, !tbaa !11
  %53 = load i32, ptr %8, align 4, !tbaa !7
  %54 = sext i32 %53 to i64
  %55 = getelementptr inbounds i32, ptr %52, i64 %54
  %56 = load i32, ptr %55, align 4, !tbaa !7
  %57 = sub nsw i32 %56, %47
  store i32 %57, ptr %55, align 4, !tbaa !7
  br label %58

58:                                               ; preds = %45
  %59 = load i32, ptr %8, align 4, !tbaa !7
  %60 = add nsw i32 %59, 1
  store i32 %60, ptr %8, align 4, !tbaa !7
  br label %41, !llvm.loop !31

61:                                               ; preds = %41
  br label %62

62:                                               ; preds = %61
  %63 = load i32, ptr %7, align 4, !tbaa !7
  %64 = add nsw i32 %63, 1
  store i32 %64, ptr %7, align 4, !tbaa !7
  br label %11, !llvm.loop !32

65:                                               ; preds = %11
  call void @llvm.lifetime.end.p0(i64 8, ptr %10) #8
  call void @llvm.lifetime.end.p0(i64 8, ptr %9) #8
  call void @llvm.lifetime.end.p0(i64 4, ptr %8) #8
  call void @llvm.lifetime.end.p0(i64 4, ptr %7) #8
  ret void
}