; Function Attrs: nofree norecurse nosync nounwind memory(readwrite, inaccessiblemem: none) uwtable
define void @center_coordinate(ptr noundef readonly captures(none) %0, i32 noundef %1, i32 noundef %2) local_unnamed_addr #4 {
  %4 = icmp sgt i32 %2, 0
  br i1 %4, label %.preheader.lr.ph, label %._crit_edge28

.preheader.lr.ph:                                 ; preds = %3
  %5 = sitofp i32 %1 to double
  %6 = icmp sgt i32 %1, 0
  br i1 %6, label %.preheader.us.us.preheader, label %._crit_edge28

.preheader.us.us.preheader:                       ; preds = %.preheader.lr.ph
  %wide.trip.count45 = zext nneg i32 %2 to i64
  %wide.trip.count = zext nneg i32 %1 to i64
  br label %.preheader.us.us

.preheader.us.us:                                 ; preds = %.preheader.us.us.preheader, %._crit_edge26.us.us
  %indvars.iv42 = phi i64 [ 0, %.preheader.us.us.preheader ], [ %indvars.iv.next43, %._crit_edge26.us.us ]
  %7 = getelementptr inbounds nuw ptr, ptr %0, i64 %indvars.iv42
  %8 = load ptr, ptr %7, align 8, !tbaa !15
  br label %13

9:                                                ; preds = %9, %._crit_edge.us.us
  %indvars.iv37 = phi i64 [ %indvars.iv.next38, %9 ], [ 0, %._crit_edge.us.us ]
  %10 = getelementptr inbounds nuw i32, ptr %8, i64 %indvars.iv37
  %11 = load i32, ptr %10, align 4, !tbaa !18
  %12 = sub nsw i32 %11, %19
  store i32 %12, ptr %10, align 4, !tbaa !18
  %indvars.iv.next38 = add nuw nsw i64 %indvars.iv37, 1
  %exitcond41.not = icmp eq i64 %indvars.iv.next38, %wide.trip.count
  br i1 %exitcond41.not, label %._crit_edge26.us.us, label %9, !llvm.loop !23

13:                                               ; preds = %.preheader.us.us, %13
  %indvars.iv = phi i64 [ 0, %.preheader.us.us ], [ %indvars.iv.next, %13 ]
  %.01822.us.us = phi double [ 0.000000e+00, %.preheader.us.us ], [ %17, %13 ]
  %14 = getelementptr inbounds nuw i32, ptr %8, i64 %indvars.iv
  %15 = load i32, ptr %14, align 4, !tbaa !18
  %16 = sitofp i32 %15 to double
  %17 = fadd double %.01822.us.us, %16
  %indvars.iv.next = add nuw nsw i64 %indvars.iv, 1
  %exitcond.not = icmp eq i64 %indvars.iv.next, %wide.trip.count
  br i1 %exitcond.not, label %._crit_edge.us.us, label %13, !llvm.loop !24

._crit_edge.us.us:                                ; preds = %13
  %18 = fdiv double %17, %5
  %19 = fptosi double %18 to i32
  br label %9

._crit_edge26.us.us:                              ; preds = %9
  %indvars.iv.next43 = add nuw nsw i64 %indvars.iv42, 1
  %exitcond46.not = icmp eq i64 %indvars.iv.next43, %wide.trip.count45
  br i1 %exitcond46.not, label %._crit_edge28, label %.preheader.us.us, !llvm.loop !25

._crit_edge28:                                    ; preds = %._crit_edge26.us.us, %.preheader.lr.ph, %3
  ret void
}